Certificate:
    Data:
        Version: 3 (0x2)
        Serial Number: 1 (0x1)
        Signature Algorithm: md5WithRSAEncryption
        Issuer: C=us, ST=nj, L=harrison, O=njit, OU=cis, CN=don/emailAddress=ks234@njit.edu
        Validity
            Not Before: Jan 23 20:09:40 2006 GMT
            Not After : Jan 18 20:09:40 2007 GMT
        Subject: C=US, ST=NJ, L=Harrison, O=NJIT, OU=CS, CN=don
        Subject Public Key Info:
            Public Key Algorithm: rsaEncryption
            RSA Public Key: (1024 bit)
                Modulus (1024 bit):
                    00:9f:47:ce:a3:52:b4:8b:dc:63:7d:5e:5c:92:33:
                    d0:09:4c:b7:d6:f1:4b:c4:f1:55:8c:11:78:16:4e:
                    3e:5a:14:2b:ad:d1:52:42:f2:ae:30:66:75:a6:77:
                    cc:5d:e9:46:7a:a0:4f:b4:25:5b:c8:16:53:81:47:
                    35:b7:3f:5e:4b:20:74:2a:89:42:af:9a:65:ac:23:
                    45:f7:d3:1b:4f:b0:5e:02:59:eb:8e:99:07:8e:04:
                    9b:8f:01:2f:60:d2:e1:ad:e1:94:14:47:bd:f6:77:
                    a7:ca:5b:79:46:91:7a:24:36:0e:bb:72:2b:02:f1:
                    08:fe:bb:3d:a1:e1:df:02:83
                Exponent: 65537 (0x10001)
    Signature Algorithm: md5WithRSAEncryption
        0c:4f:95:fd:67:b5:24:ac:76:8d:aa:97:75:46:a6:d3:88:db:
        80:9c:3b:b4:62:cc:15:b7:02:c8:8c:a1:13:83:2e:cb:c2:1c:
        4e:76:af:c7:ca:9e:58:93:98:f4:43:b8:5a:f4:a2:8b:7b:20:
        ef:87:b2:3b:94:9d:38:7d:59:29:a4:80:1b:2d:99:97:ab:d7:
        5f:8e:c2:90:48:7f:8f:0c:cf:d9:d1:d5:72:46:b6:08:42:e8:
        32:ec:16:94:6f:f2:bf:3c:57:ef:ff:d7:74:ba:00:7f:67:99:
        e9:6f:e4:7c:54:13:ce:ca:e9:3c:37:3e:1a:84:3f:e1:f6:42:
        aa:e6
-----BEGIN CERTIFICATE-----
MIICQjCCAaugAwIBAgIBATANBgkqhkiG9w0BAQQFADB3MQswCQYDVQQGEwJ1czEL
MAkGA1UECBMCbmoxETAPBgNVBAcTCGhhcnJpc29uMQ0wCwYDVQQKEwRuaml0MQww
CgYDVQQLEwNjaXMxDDAKBgNVBAMTA2RvbjEdMBsGCSqGSIb3DQEJARYOa3MyMzRA
bmppdC5lZHUwHhcNMDYwMTIzMjAwOTQwWhcNMDcwMTE4MjAwOTQwWjBXMQswCQYD
VQQGEwJVUzELMAkGA1UECBMCTkoxETAPBgNVBAcTCEhhcnJpc29uMQ0wCwYDVQQK
EwROSklUMQswCQYDVQQLEwJDUzEMMAoGA1UEAxMDZG9uMIGfMA0GCSqGSIb3DQEB
AQUAA4GNADCBiQKBgQCfR86jUrSL3GN9XlySM9AJTLfW8UvE8VWMEXgWTj5aFCut
0VJC8q4wZnWmd8xd6UZ6oE+0JVvIFlOBRzW3P15LIHQqiUKvmmWsI0X30xtPsF4C
WeuOmQeOBJuPAS9g0uGt4ZQUR732d6fKW3lGkXokNg67cisC8Qj+uz2h4d8CgwID
AQABMA0GCSqGSIb3DQEBBAUAA4GBAAxPlf1ntSSsdo2ql3VGptOI24CcO7RizBW3
AsiMoRODLsvCHE52r8fKnliTmPRDuFr0oot7IO+HsjuUnTh9WSmkgBstmZer11+O
wpBIf48Mz9nR1XJGtghC6DLsFpRv8r88V+//13S6AH9nmelv5HxUE87K6Tw3PhqE
P+H2Qqrm
-----END CERTIFICATE-----
